; Function Attrs: mustprogress nounwind uwtable
define hidden void @_ZN13StubGenerator27generate_continuation_stubsEv(ptr noundef nonnull align 8 dereferenceable(24) %0) local_unnamed_addr #0 align 2 {
  %2 = tail call noundef ptr @_ZN13StubGenerator18generate_cont_thawEPKcN12Continuation9thaw_kindE(ptr noundef nonnull align 8 dereferenceable(24) %0, ptr noundef nonnull @.str.53, i32 noundef 0)
  store ptr %2, ptr @_ZN12StubRoutines10_cont_thawE, align 8
  %3 = tail call noundef ptr @_ZN13StubGenerator18generate_cont_thawEPKcN12Continuation9thaw_kindE(ptr noundef nonnull align 8 dereferenceable(24) %0, ptr noundef nonnull @.str.54, i32 noundef 1)
  store ptr %3, ptr @_ZN12StubRoutines19_cont_returnBarrierE, align 8
  %4 = tail call noundef ptr @_ZN13StubGenerator18generate_cont_thawEPKcN12Continuation9thaw_kindE(ptr noundef nonnull align 8 dereferenceable(24) %0, ptr noundef nonnull @.str.55, i32 noundef 2)
  store ptr %4, ptr @_ZN12StubRoutines22_cont_returnBarrierExcE, align 8
  %5 = tail call noundef ptr @_ZN13StubGenerator29generate_jfr_write_checkpointEv(ptr nonnull readnone align 8 poison)
  store ptr %5, ptr @_ZN12StubRoutines26_jfr_write_checkpoint_stubE, align 8
  %6 = getelementptr inbounds i8, ptr %5, i64 36
  %7 = load i32, ptr %6, align 4
  %8 = sext i32 %7 to i64
  %9 = getelementptr inbounds i8, ptr %5, i64 %8
  store ptr %9, ptr @_ZN12StubRoutines21_jfr_write_checkpointE, align 8
  %10 = tail call noundef ptr @_ZN13StubGenerator25generate_jfr_return_leaseEv(ptr nonnull readnone align 8 poison)
  store ptr %10, ptr @_ZN12StubRoutines22_jfr_return_lease_stubE, align 8
  %11 = getelementptr inbounds i8, ptr %10, i64 36
  %12 = load i32, ptr %11, align 4
  %13 = sext i32 %12 to i64
  %14 = getelementptr inbounds i8, ptr %10, i64 %13
  store ptr %14, ptr @_ZN12StubRoutines17_jfr_return_leaseE, align 8
  ret void
}